; Function Attrs: mustprogress nounwind uwtable
define dso_local noundef zeroext i1 @_ZN4absl21StrContainsIgnoreCaseESt17basic_string_viewIcSt11char_traitsIcEES3_(i64 %0, ptr %1, i64 %2, ptr %3) local_unnamed_addr #0 personality ptr @__gxx_personality_v0 {
  %.not8.not = icmp ult i64 %0, %2
  br i1 %.not8.not, label %._crit_edge, label %.lr.ph

.lr.ph:                                           ; preds = %4, %_ZN4absl20StartsWithIgnoreCaseESt17basic_string_viewIcSt11char_traitsIcEES3_.exit
  %.sroa.5.010 = phi ptr [ %10, %_ZN4absl20StartsWithIgnoreCaseESt17basic_string_viewIcSt11char_traitsIcEES3_.exit ], [ %1, %4 ]
  %.sroa.04.09 = phi i64 [ %11, %_ZN4absl20StartsWithIgnoreCaseESt17basic_string_viewIcSt11char_traitsIcEES3_.exit ], [ %0, %4 ]
  %5 = invoke noundef i32 @_ZN4absl16strings_internal10memcasecmpEPKcS2_m(ptr noundef %.sroa.5.010, ptr noundef %3, i64 noundef %2)
          to label %_ZN4absl20StartsWithIgnoreCaseESt17basic_string_viewIcSt11char_traitsIcEES3_.exit unwind label %6

6:                                                ; preds = %.lr.ph
  %7 = landingpad { ptr, i32 }
          catch ptr null
  %8 = extractvalue { ptr, i32 } %7, 0
  tail call void @__clang_call_terminate(ptr %8) #10
  unreachable

_ZN4absl20StartsWithIgnoreCaseESt17basic_string_viewIcSt11char_traitsIcEES3_.exit: ; preds = %.lr.ph
  %9 = icmp eq i32 %5, 0
  %10 = getelementptr inbounds nuw i8, ptr %.sroa.5.010, i64 1
  %11 = add i64 %.sroa.04.09, -1
  %.not.not = icmp ult i64 %11, %2
  %or.cond = select i1 %9, i1 true, i1 %.not.not
  br i1 %or.cond, label %._crit_edge, label %.lr.ph, !llvm.loop !4

._crit_edge:                                      ; preds = %_ZN4absl20StartsWithIgnoreCaseESt17basic_string_viewIcSt11char_traitsIcEES3_.exit, %4
  %.not.lcssa = phi i1 [ false, %4 ], [ %9, %_ZN4absl20StartsWithIgnoreCaseESt17basic_string_viewIcSt11char_traitsIcEES3_.exit ]
  ret i1 %.not.lcssa
}